; Function Attrs: mustprogress uwtable
define noundef zeroext i1 @_ZN6Unpack13ReadVMCodePPMEv(ptr noundef nonnull align 8 dereferenceable(59688) %0) local_unnamed_addr #0 align 2 personality ptr @__gxx_personality_v0 {
  %2 = getelementptr inbounds i8, ptr %0, i64 39440
  %3 = tail call noundef i32 @_ZN8ModelPPM10DecodeCharEv(ptr noundef nonnull align 8 dereferenceable(19648) %2), !range !74
  %4 = icmp eq i32 %3, -1
  br i1 %4, label %_ZN6Unpack17SafePPMDecodeCharEv.exit.thread, label %_ZN6Unpack17SafePPMDecodeCharEv.exit

_ZN6Unpack17SafePPMDecodeCharEv.exit.thread:      ; preds = %1
  tail call void @_ZN8ModelPPM7CleanUpEv(ptr noundef nonnull align 8 dereferenceable(19648) %2)
  %5 = getelementptr inbounds i8, ptr %0, i64 59496
  store i32 0, ptr %5, align 8
  br label %_ZN5ArrayIhED2Ev.exit38

_ZN6Unpack17SafePPMDecodeCharEv.exit:             ; preds = %1
  %6 = and i32 %3, 7
  %7 = add nuw nsw i32 %6, 1
  switch i32 %6, label %.thread [
    i32 6, label %8
    i32 7, label %13
  ]

8:                                                ; preds = %_ZN6Unpack17SafePPMDecodeCharEv.exit
  %9 = tail call noundef i32 @_ZN8ModelPPM10DecodeCharEv(ptr noundef nonnull align 8 dereferenceable(19648) %2), !range !74
  %10 = icmp eq i32 %9, -1
  br i1 %10, label %_ZN6Unpack17SafePPMDecodeCharEv.exit31.thread, label %_ZN6Unpack17SafePPMDecodeCharEv.exit31

_ZN6Unpack17SafePPMDecodeCharEv.exit31.thread:    ; preds = %8
  tail call void @_ZN8ModelPPM7CleanUpEv(ptr noundef nonnull align 8 dereferenceable(19648) %2)
  %11 = getelementptr inbounds i8, ptr %0, i64 59496
  store i32 0, ptr %11, align 8
  br label %_ZN5ArrayIhED2Ev.exit38

_ZN6Unpack17SafePPMDecodeCharEv.exit31:           ; preds = %8
  %12 = add nuw nsw i32 %9, 7
  br label %.thread

13:                                               ; preds = %_ZN6Unpack17SafePPMDecodeCharEv.exit
  %14 = tail call noundef i32 @_ZN8ModelPPM10DecodeCharEv(ptr noundef nonnull align 8 dereferenceable(19648) %2), !range !74
  %15 = icmp eq i32 %14, -1
  br i1 %15, label %_ZN6Unpack17SafePPMDecodeCharEv.exit32.thread, label %_ZN6Unpack17SafePPMDecodeCharEv.exit32

_ZN6Unpack17SafePPMDecodeCharEv.exit32.thread:    ; preds = %13
  tail call void @_ZN8ModelPPM7CleanUpEv(ptr noundef nonnull align 8 dereferenceable(19648) %2)
  %16 = getelementptr inbounds i8, ptr %0, i64 59496
  store i32 0, ptr %16, align 8
  br label %_ZN5ArrayIhED2Ev.exit38

_ZN6Unpack17SafePPMDecodeCharEv.exit32:           ; preds = %13
  %17 = tail call noundef i32 @_ZN8ModelPPM10DecodeCharEv(ptr noundef nonnull align 8 dereferenceable(19648) %2), !range !74
  %18 = icmp eq i32 %17, -1
  br i1 %18, label %_ZN6Unpack17SafePPMDecodeCharEv.exit33.thread, label %20

_ZN6Unpack17SafePPMDecodeCharEv.exit33.thread:    ; preds = %_ZN6Unpack17SafePPMDecodeCharEv.exit32
  tail call void @_ZN8ModelPPM7CleanUpEv(ptr noundef nonnull align 8 dereferenceable(19648) %2)
  %19 = getelementptr inbounds i8, ptr %0, i64 59496
  store i32 0, ptr %19, align 8
  br label %_ZN5ArrayIhED2Ev.exit38

20:                                               ; preds = %_ZN6Unpack17SafePPMDecodeCharEv.exit32
  %21 = shl nuw nsw i32 %14, 8
  %22 = add nuw nsw i32 %17, %21
  %23 = icmp eq i32 %22, 0
  br i1 %23, label %_ZN5ArrayIhED2Ev.exit38, label %.thread

.thread:                                          ; preds = %_ZN6Unpack17SafePPMDecodeCharEv.exit, %_ZN6Unpack17SafePPMDecodeCharEv.exit31, %20
  %.02343 = phi i32 [ %22, %20 ], [ %7, %_ZN6Unpack17SafePPMDecodeCharEv.exit ], [ %12, %_ZN6Unpack17SafePPMDecodeCharEv.exit31 ]
  %24 = tail call i32 @llvm.umax.i32(i32 %.02343, i32 32)
  %..i.i = zext nneg i32 %24 to i64
  %malloc.i = tail call ptr @malloc(i64 %..i.i)
  %25 = icmp eq ptr %malloc.i, null
  br i1 %25, label %26, label %_ZN5ArrayIhEC2Em.exit

26:                                               ; preds = %.thread
  tail call void @_ZN12ErrorHandler11MemoryErrorEv(ptr noundef nonnull align 4 dereferenceable(14) @ErrHandler)
  br label %_ZN5ArrayIhEC2Em.exit

_ZN5ArrayIhEC2Em.exit:                            ; preds = %.thread, %26
  %wide.trip.count = zext nneg i32 %.02343 to i64
  br label %27

27:                                               ; preds = %_ZN5ArrayIhEC2Em.exit, %_ZN6Unpack17SafePPMDecodeCharEv.exit35
  %indvars.iv = phi i64 [ 0, %_ZN5ArrayIhEC2Em.exit ], [ %indvars.iv.next, %_ZN6Unpack17SafePPMDecodeCharEv.exit35 ]
  %28 = invoke noundef i32 @_ZN8ModelPPM10DecodeCharEv(ptr noundef nonnull align 8 dereferenceable(19648) %2)
          to label %.noexc unwind label %.loopexit

.noexc:                                           ; preds = %27
  %29 = icmp eq i32 %28, -1
  br i1 %29, label %30, label %_ZN6Unpack17SafePPMDecodeCharEv.exit35

30:                                               ; preds = %.noexc
  invoke void @_ZN8ModelPPM7CleanUpEv(ptr noundef nonnull align 8 dereferenceable(19648) %2)
          to label %37 unwind label %.loopexit.split-lp

.loopexit:                                        ; preds = %27
  %lpad.loopexit = landingpad { ptr, i32 }
          cleanup
  br label %31

.loopexit.split-lp:                               ; preds = %35, %30
  %lpad.loopexit.split-lp = landingpad { ptr, i32 }
          cleanup
  br label %31

31:                                               ; preds = %.loopexit.split-lp, %.loopexit
  %lpad.phi = phi { ptr, i32 } [ %lpad.loopexit, %.loopexit ], [ %lpad.loopexit.split-lp, %.loopexit.split-lp ]
  br i1 %25, label %_ZN5ArrayIhED2Ev.exit, label %32

32:                                               ; preds = %31
  tail call void @free(ptr noundef nonnull %malloc.i) #21
  br label %_ZN5ArrayIhED2Ev.exit

_ZN5ArrayIhED2Ev.exit:                            ; preds = %31, %32
  resume { ptr, i32 } %lpad.phi

_ZN6Unpack17SafePPMDecodeCharEv.exit35:           ; preds = %.noexc
  %33 = trunc i32 %28 to i8
  %34 = getelementptr inbounds i8, ptr %malloc.i, i64 %indvars.iv
  store i8 %33, ptr %34, align 1
  %indvars.iv.next = add nuw nsw i64 %indvars.iv, 1
  %exitcond.not = icmp eq i64 %indvars.iv.next, %wide.trip.count
  br i1 %exitcond.not, label %35, label %27, !llvm.loop !86

35:                                               ; preds = %_ZN6Unpack17SafePPMDecodeCharEv.exit35
  %36 = invoke noundef zeroext i1 @_ZN6Unpack9AddVMCodeEjPhj(ptr noundef nonnull align 8 dereferenceable(59688) %0, i32 noundef %3, ptr noundef nonnull %malloc.i, i32 noundef %.02343)
          to label %.thread46 unwind label %.loopexit.split-lp

37:                                               ; preds = %30
  %38 = getelementptr inbounds i8, ptr %0, i64 59496
  store i32 0, ptr %38, align 8
  br i1 %25, label %_ZN5ArrayIhED2Ev.exit38, label %.thread46

.thread46:                                        ; preds = %35, %37
  %.048 = phi i1 [ false, %37 ], [ %36, %35 ]
  tail call void @free(ptr noundef nonnull %malloc.i) #21
  br label %_ZN5ArrayIhED2Ev.exit38

_ZN5ArrayIhED2Ev.exit38:                          ; preds = %.thread46, %37, %_ZN6Unpack17SafePPMDecodeCharEv.exit33.thread, %_ZN6Unpack17SafePPMDecodeCharEv.exit32.thread, %_ZN6Unpack17SafePPMDecodeCharEv.exit31.thread, %_ZN6Unpack17SafePPMDecodeCharEv.exit.thread, %20
  %.1 = phi i1 [ false, %20 ], [ false, %_ZN6Unpack17SafePPMDecodeCharEv.exit.thread ], [ false, %_ZN6Unpack17SafePPMDecodeCharEv.exit31.thread ], [ false, %_ZN6Unpack17SafePPMDecodeCharEv.exit32.thread ], [ false, %_ZN6Unpack17SafePPMDecodeCharEv.exit33.thread ], [ false, %37 ], [ %.048, %.thread46 ]
  ret i1 %.1
}